###############################################################################
#
# IAR ELF Linker V7.50.3.10732/W32 for ARM                25/Sep/2017  10:49:16
# Copyright 2007-2016 IAR Systems AB.
#
#    Output file  =  bin\pecc1sc1_ia.elf
#    Map file     =  bin/pecc1sc1_ia.map
#    Command line =  
#        --no_wrap_diagnostics --skip_dynamic_initialization -L
#        D:/IAR_Systems/Embedded_Workbench_7.3/arm/arm/lib --config
#        obj\memory.icf --map bin/pecc1sc1_ia.map obj\pecc1sc1_cfg.o
#        obj\pecc1.o obj\SystemInit.o obj\Os_ioc.o obj\Os_schedule_table.o
#        obj\Os_event.o obj\Os_counter.o obj\Os_orti.o obj\Os_task.o
#        obj\Os_tp.o obj\Os_scheduler.o obj\Os_platform_interrupt.o
#        obj\Os_hw_core.o obj\Os_error.o obj\Os_resource.o obj\Os_isr.o
#        obj\Os_stack.o obj\Os_alarm.o obj\Os_setup.o obj\Os_mem.o
#        obj\Os_multicore.o obj\Os_application.o obj\vector_iar.o
#        obj\startup_iar.o -o bin\pecc1sc1_ia.elf
#
###############################################################################

*******************************************************************************
*** RUNTIME MODEL ATTRIBUTES
***

CppFlavor       = *
__SystemLibrary = DLib


*******************************************************************************
*** PLACEMENT SUMMARY
***

"A1":  place at start of [0x1fffc000-0x20002fff] { section .vector };
"P1":  place in [from 0x1fffc000 to 0x20002fff] { ro };
"P2":  place in [from 0x1fffc000 to 0x20002fff] { rw, block CSTACK };

  Section            Kind        Address    Size  Object
  -------            ----        -------    ----  ------
"A1":                                      0x2c0
  .vector            ro code  0x1fffc000   0x2c0  vector_iar.o [1]
                            - 0x1fffc2c0   0x2c0

"P1":                                     0x1e4c
  .text              ro code  0x1fffc2c0   0x680  pecc1.o [1]
  .text              ro code  0x1fffc940   0x1dc  SystemInit.o [1]
  .ostext            ro code  0x1fffcb1c    0x7c  Os_setup.o [1]
  .ostext            ro code  0x1fffcb98   0x478  Os_alarm.o [1]
  .ostext            ro code  0x1fffd010   0x1f4  Os_schedule_table.o [1]
  .ostext            ro code  0x1fffd204   0x148  Os_task.o [1]
  .ostext            ro code  0x1fffd34c   0x158  Os_event.o [1]
  .ostext            ro code  0x1fffd4a4     0xe  pecc1.o [1]
  .text              ro code  0x1fffd4b2     0x2  vector_table_M.o [5]
  .ostext            ro code  0x1fffd4b4   0x24c  Os_isr.o [1]
  .ostext            ro code  0x1fffd700    0xf8  Os_counter.o [1]
  .ostext            ro code  0x1fffd7f8    0xfc  Os_scheduler.o [1]
  .ostext            ro code  0x1fffd8f4   0x138  Os_platform_interrupt.o [1]
  .ostext            ro code  0x1fffda2c   0x164  Os_hw_core.o [1]
  .ostext            ro code  0x1fffdb90     0x6  Os_mem.o [1]
  .rodata            const    0x1fffdb98   0x394  pecc1sc1_cfg.o [1]
  .startup           ro code  0x1fffdf2c    0x78  startup_iar.o [1]
  .intvec            ro code  0x1fffdfa4    0x40  vector_table_M.o [5]
  .text              ro code  0x1fffdfe4    0x40  zero_init3.o [5]
  .text              ro code  0x1fffe024    0x2c  copy_init3.o [5]
  .text              ro code  0x1fffe050    0x28  data_init.o [5]
  .text              ro code  0x1fffe078    0x22  fpinit_M.o [4]
  .iar.init_table    const    0x1fffe09c    0x24  - Linker created -
  .text              ro code  0x1fffe0c0    0x1a  cmain.o [5]
  .text              ro code  0x1fffe0da     0x4  low_level_init.o [3]
  .text              ro code  0x1fffe0de     0x4  exit.o [3]
  .text              ro code  0x1fffe0e4     0xa  cexit.o [5]
  .text              ro code  0x1fffe0f0     0xc  XXexit.o [5]
  .text              ro code  0x1fffe0fc     0xc  cstartup_M.o [5]
  Initializer bytes  const    0x1fffe108     0x4  <for P2-1>
  .rodata            const    0x1fffe10c     0x0  zero_init3.o [5]
  .rodata            const    0x1fffe10c     0x0  copy_init3.o [5]
                            - 0x1fffe10c  0x1e4c

"P2", part 1 of 3:                           0x4
  P2-1                        0x1fffe10c     0x4  <Init block>
    .data            inited   0x1fffe10c     0x4  SystemInit.o [1]
                            - 0x1fffe110     0x4

"P2", part 2 of 3:                        0x1000
  CSTACK                      0x1fffe110  0x1000  <Block>
    CSTACK           uninit   0x1fffe110  0x1000  <Block tail>
                            - 0x1ffff110  0x1000

"P2", part 3 of 3:                        0x20b4
  .osstack           zero     0x1ffff110  0x1958  Os_stack.o [1]
  .bss               zero     0x20000a68   0x288  Os_task.o [1]
  .osstack           zero     0x20000cf0   0x214  Os_stack.o [1]
  .bss               zero     0x20000f04   0x12e  Os_alarm.o [1]
  .bss               zero     0x20001034    0x84  Os_platform_interrupt.o [1]
  .bss               zero     0x200010b8    0x80  pecc1.o [1]
  .bss               zero     0x20001138    0x58  Os_isr.o [1]
  .bss               zero     0x20001190    0x18  Os_schedule_table.o [1]
  .bss               zero     0x200011a8    0x10  Os_counter.o [1]
  .bss               zero     0x200011b8     0x8  Os_scheduler.o [1]
  .bss               zero     0x200011c0     0x4  Os_isr.o [1]
                            - 0x200011c4  0x20b4


*******************************************************************************
*** INIT TABLE
***

          Address     Size
          -------     ----
Zero (__iar_zero_init3)
    1 destination range, total size 0x20b4:
          0x1ffff110  0x20b4

Copy (__iar_copy_init3)
    1 source range, total size 0x4:
          0x1fffe108     0x4
    1 destination range, total size 0x4:
          0x1fffe10c     0x4



*******************************************************************************
*** MODULE SUMMARY
***

    Module                   ro code  ro data  rw data
    ------                   -------  -------  -------
D:\AutosarOS\REPO\S32K_benchmark\Jira\FPU\release__oss32kv4\benchmark\performance\ecc1\sc1\obj: [1]
    Os_alarm.o                 1 144               302
    Os_counter.o                 248                16
    Os_event.o                   344
    Os_hw_core.o                 356
    Os_isr.o                     588                92
    Os_mem.o                       6
    Os_platform_interrupt.o      312               132
    Os_schedule_table.o          500                24
    Os_scheduler.o               252                 8
    Os_setup.o                   124
    Os_stack.o                                   7 020
    Os_task.o                    328               648
    SystemInit.o                 476        4        4
    pecc1.o                    1 678               128
    pecc1sc1_cfg.o                        916
    startup_iar.o                120
    vector_iar.o                 704
    --------------------------------------------------
    Total:                     7 180      920    8 374

command line: [2]
    --------------------------------------------------
    Total:

dl7M_tln.a: [3]
    exit.o                         4
    low_level_init.o               4
    --------------------------------------------------
    Total:                         8

m7M_tls.a: [4]
    fpinit_M.o                    34
    --------------------------------------------------
    Total:                        34

rt7M_tl.a: [5]
    XXexit.o                      12
    cexit.o                       10
    cmain.o                       26
    copy_init3.o                  44
    cstartup_M.o                  12
    data_init.o                   40
    vector_table_M.o              66
    zero_init3.o                  64
    --------------------------------------------------
    Total:                       274

    Gaps                           4        4        2
    Linker created                         36    4 096
------------------------------------------------------
    Grand Total:               7 500      960   12 472


*******************************************************************************
*** ENTRY LIST
***

Entry                      Address    Size  Type      Object
-----                      -------    ----  ----      ------
.iar.init_table$$Base   0x1fffe09c           --   Gb  - Linker created -
.iar.init_table$$Limit  0x1fffe0c0           --   Gb  - Linker created -
?main                   0x1fffe0c1          Code  Gb  cmain.o [5]
CSTACK$$Base            0x1fffe110           --   Gb  - Linker created -
CSTACK$$Limit           0x1ffff110           --   Gb  - Linker created -
FuncTASK_1              0x1fffc579    0x48  Code  Gb  pecc1.o [1]
FuncTASK_2              0x1fffc5c1    0x1e  Code  Gb  pecc1.o [1]
FuncTASK_3_EVT          0x1fffc617    0x36  Code  Gb  pecc1.o [1]
FuncTASK_4_EVT          0x1fffc64d    0x2a  Code  Gb  pecc1.o [1]
FuncTASK_ALM            0x1fffc70d    0x1e  Code  Gb  pecc1.o [1]
FuncTASK_ALM_EVT        0x1fffc677    0x2a  Code  Gb  pecc1.o [1]
FuncTASK_BGND           0x1fffc337   0x1f6  Code  Gb  pecc1.o [1]
FuncTASK_h1             0x1fffc72b    0x2c  Code  Gb  pecc1.o [1]
FuncTASK_h2             0x1fffc757    0x12  Code  Gb  pecc1.o [1]
FuncTASK_h3             0x1fffc769    0x12  Code  Gb  pecc1.o [1]
FuncTASK_h4             0x1fffc77b    0x28  Code  Gb  pecc1.o [1]
FuncTASK_h5             0x1fffc7a3    0x1e  Code  Gb  pecc1.o [1]
FuncTASK_h6             0x1fffc7c1     0x4  Code  Gb  pecc1.o [1]
FuncTASK_h7             0x1fffc7c5     0x4  Code  Gb  pecc1.o [1]
FuncTASK_h8             0x1fffc7c9    0x1e  Code  Gb  pecc1.o [1]
FuncTASK_t1             0x1fffc859    0x1e  Code  Gb  pecc1.o [1]
FuncTASK_t2             0x1fffc877    0x22  Code  Gb  pecc1.o [1]
FuncTASK_t3             0x1fffc899    0x1e  Code  Gb  pecc1.o [1]
FuncTASK_t4             0x1fffc8b7    0x22  Code  Gb  pecc1.o [1]
FuncTASK_t5             0x1fffc8d9     0x4  Code  Gb  pecc1.o [1]
FuncTASK_t6             0x1fffc8dd     0x4  Code  Gb  pecc1.o [1]
FuncTASK_t7             0x1fffc8e1    0x1e  Code  Gb  pecc1.o [1]
MAIN_STACK$$Limit       0x00000000           --   Gb  - Linker created -
OSArmDeactivateIsr      0x1fffdb35    0x5c  Code  Gb  Os_hw_core.o [1]
OSBusFaultException     0x1fffdaef    0x16  Code  Gb  Os_hw_core.o [1]
OSCheckAlarms           0x1fffcd3f    0xf4  Code  Gb  Os_alarm.o [1]
OSCounterNotify         0x1fffcbdd   0x162  Code  Gb  Os_alarm.o [1]
OSDebugMonitorException
                        0x1fffdb25     0x6  Code  Gb  Os_hw_core.o [1]
OSExceptionError        0x1fffdb91     0x6  Code  Gb  Os_mem.o [1]
OSHardFaultException    0x1fffdae7     0x8  Code  Gb  Os_hw_core.o [1]
OSISRException          0x1fffd4b5     0x6  Code  Gb  Os_isr.o [1]
OSISRSetPrio            0x1fffd4a5     0xe  Code  Lc  pecc1.o [1]
OSISRSystemTimer        0x1fffd749    0x4a  Code  Gb  Os_counter.o [1]
OSInitAlarms            0x1fffcea3    0x68  Code  Gb  Os_alarm.o [1]
OSInitCounters          0x1fffd701     0xe  Code  Gb  Os_counter.o [1]
OSInitScheduleTables    0x1fffd011    0x3a  Code  Gb  Os_schedule_table.o [1]
OSInitSystemTimer       0x1fffd7c7    0x22  Code  Gb  Os_counter.o [1]
OSInitTasks             0x1fffd2b5    0x84  Code  Gb  Os_task.o [1]
OSInitializeISR         0x1fffd4bd    0x86  Code  Gb  Os_isr.o [1]
OSInsertAlarm           0x1fffce33    0x70  Code  Gb  Os_alarm.o [1]
OSInterruptDispatcher   0x1fffda2d    0x34  Code  Gb  Os_hw_core.o [1]
OSInterruptDispatcher1  0x1fffd589    0xf4  Code  Gb  Os_isr.o [1]
OSLeaveISR              0x1fffd67d    0x58  Code  Lc  Os_isr.o [1]
OSLongJmp               0x1fffdab5    0x2a  Code  Gb  Os_hw_core.o [1]
OSNmiException          0x1fffdadf     0x8  Code  Gb  Os_hw_core.o [1]
OSNotifyAlarmAction     0x1fffcb99    0x44  Code  Gb  Os_alarm.o [1]
OSPendSVException       0x1fffda61    0x26  Code  Gb  Os_hw_core.o [1]
OSPlatformIntcInit      0x1fffd8f5    0xc6  Code  Gb  Os_platform_interrupt.o [1]
OSPlatformIntcShutdown  0x1fffd9bd    0x50  Code  Gb  Os_platform_interrupt.o [1]
OSProcessScheduleTable  0x1fffd04b    0xa6  Code  Gb  Os_schedule_table.o [1]
OSReservedException     0x1fffdb2b     0x8  Code  Gb  Os_hw_core.o [1]
OSSVCallException       0x1fffdb1d     0x8  Code  Gb  Os_hw_core.o [1]
OSScheduleTable1_actions
                        0x1fffdeac    0x70  Data  Lc  pecc1sc1_cfg.o [1]
OSSetEvent              0x1fffd34d    0x3a  Code  Gb  Os_event.o [1]
OSSetJmp                0x1fffda89    0x2a  Code  Gb  Os_hw_core.o [1]
OSShutdownOS            0x1fffcb85    0x14  Code  Gb  Os_setup.o [1]
OSStartTimers           0x1fffd7af    0x18  Code  Gb  Os_counter.o [1]
OSStopTimers            0x1fffd793    0x1c  Code  Gb  Os_counter.o [1]
OSSysTimerArm           0x1fffd723    0x26  Code  Gb  Os_counter.o [1]
OSSysTimerCancel        0x1fffd70f    0x14  Code  Gb  Os_counter.o [1]
OSTaskForceDispatch     0x1fffd85d    0x42  Code  Gb  Os_scheduler.o [1]
OSTaskInternalDispatch  0x1fffd7f9    0x64  Code  Gb  Os_scheduler.o [1]
OSTaskTerminateDispatch
                        0x1fffd8a1    0x48  Code  Gb  Os_scheduler.o [1]
OSTrustedISR2           0x1fffd545    0x42  Code  Lc  Os_isr.o [1]
OSUsageFaultException   0x1fffdb15     0x8  Code  Gb  Os_hw_core.o [1]
OS_ActivateTask         0x1fffd205    0x96  Code  Gb  Os_task.o [1]
OS_ClearEvent           0x1fffd40d    0x3a  Code  Gb  Os_event.o [1]
OS_SetEvent             0x1fffd389    0x82  Code  Gb  Os_event.o [1]
OS_SetRelAlarm          0x1fffcf0d    0xe0  Code  Gb  Os_alarm.o [1]
OS_StartScheduleTableRel
                        0x1fffd0f1    0xe4  Code  Gb  Os_schedule_table.o [1]
OS_TaskListHead_        0x200011bc     0x4  Data  Gb  Os_scheduler.o [1]
OS_TerminateTask        0x1fffd29d    0x18  Code  Gb  Os_task.o [1]
OS_WaitEvent            0x1fffd449    0x4a  Code  Gb  Os_event.o [1]
OS_isr_OneEventISR      0x1fffc5df    0x38  Code  Gb  pecc1.o [1]
OS_isr_OneTaskISR       0x1fffc52d    0x4c  Code  Gb  pecc1.o [1]
OS_isr_SecondTimerISR   0x1fffc6a5    0x68  Code  Gb  pecc1.o [1]
OsAlarmsCfg             0x1fffde24    0x78  Data  Gb  pecc1sc1_cfg.o [1]
OsAllAlarms             0x20000f04   0x12c  Data  Gb  Os_alarm.o [1]
OsCounters              0x200011a8    0x10  Data  Gb  Os_counter.o [1]
OsCountersCfg           0x1fffde9c    0x10  Data  Gb  pecc1sc1_cfg.o [1]
OsISRStack              0x20000cf0   0x214  Data  Gb  Os_stack.o [1]
OsInitialMSR_           0x200011c0     0x4  Data  Gb  Os_isr.o [1]
OsIsr                   0x1fffdcdc   0x148  Data  Gb  pecc1sc1_cfg.o [1]
OsIsrArray              0x20001178     0xc  Data  Gb  Os_isr.o [1]
OsIsrCfg                0x1fffdca0    0x3c  Data  Gb  pecc1sc1_cfg.o [1]
OsIsrLevel_             0x2000118c     0x4  Data  Gb  Os_isr.o [1]
OsIsrTable              0x20001138    0x3c  Data  Gb  Os_isr.o [1]
OsOldIntMaskAll_        0x20001184     0x4  Data  Gb  Os_isr.o [1]
OsOldInterruptMask_     0x20001188     0x4  Data  Gb  Os_isr.o [1]
OsRunning_              0x20000cec     0x4  Data  Gb  Os_task.o [1]
OsScheduleTables        0x20001190    0x18  Data  Gb  Os_schedule_table.o [1]
OsScheduleTablesCfg     0x1fffdf1c    0x10  Data  Gb  pecc1sc1_cfg.o [1]
OsSchedulerVector1_     0x200011b8     0x4  Data  Gb  Os_scheduler.o [1]
OsStacks                0x1ffff110  0x1958  Data  Gb  Os_stack.o [1]
OsSuspendLevelAll_      0x20001174     0x1  Data  Gb  Os_isr.o [1]
OsSuspendLevel_         0x20001175     0x1  Data  Gb  Os_isr.o [1]
OsTaskCfgTable          0x1fffdb98   0x108  Data  Gb  pecc1sc1_cfg.o [1]
OsTaskTable             0x20000a68   0x284  Data  Gb  Os_task.o [1]
OsTimVal_               0x20001030     0x2  Data  Gb  Os_alarm.o [1]
Os_ArmNvicNestingLevel_
                        0x200010b4     0x4  Data  Gb  Os_platform_interrupt.o [1]
Os_ArmSavedIRQCtx_      0x20001034    0x80  Data  Gb  Os_platform_interrupt.o [1]
Region$$Table$$Base     0x1fffe09c           --   Gb  - Linker created -
Region$$Table$$Limit    0x1fffe0c0           --   Gb  - Linker created -
Reset_Handler           0x1fffdf2d          Code  Gb  startup_iar.o [1]
SCB                     0x1fffe10c     0x4  Data  Gb  SystemInit.o [1]
SetBenchmarkPLL         0x1fffca21    0xd8  Code  Gb  SystemInit.o [1]
StartOS                 0x1fffcb1d    0x5c  Code  Gb  Os_setup.o [1]
SystemInit              0x1fffc941    0xe0  Code  Gb  SystemInit.o [1]
SystemTimerISR          0x1fffc7e9    0x70  Code  Gb  pecc1.o [1]
VTABLE                  0x1fffc000          Data  Gb  vector_iar.o [1]
__cmain                 0x1fffe0c1          Code  Gb  cmain.o [5]
__exit                  0x1fffe0f1          Code  Gb  XXexit.o [5]
__iar_copy_init3        0x1fffe025    0x2c  Code  Gb  copy_init3.o [5]
__iar_data_init3        0x1fffe051    0x28  Code  Gb  data_init.o [5]
__iar_init_vfp          0x1fffe079          Code  Gb  fpinit_M.o [4]
__iar_program_start     0x1fffe0fd          Code  Gb  cstartup_M.o [5]
__iar_zero_init3        0x1fffdfe5    0x40  Code  Gb  zero_init3.o [5]
__low_level_init        0x1fffe0db     0x4  Code  Gb  low_level_init.o [3]
__vector_table          0x1fffdfa4          Data  Gb  vector_table_M.o [5]
_call_main              0x1fffe0cd          Code  Gb  cmain.o [5]
_exit                   0x1fffe0e5          Code  Gb  cexit.o [5]
_main                   0x1fffe0d7          Code  Gb  cmain.o [5]
activateTask1FromIsr    0x200010cc     0x4  Data  Gb  pecc1.o [1]
activateTaskA1ViaAlarm  0x200010e8     0x4  Data  Gb  pecc1.o [1]
activated1ExtendedTask  0x200010f8     0x4  Data  Gb  pecc1.o [1]
activated1Task          0x20001110     0x4  Data  Gb  pecc1.o [1]
activated4ExtendedTasks
                        0x200010fc     0x4  Data  Gb  pecc1.o [1]
activated4Tasks         0x20001118     0x4  Data  Gb  pecc1.o [1]
established1Event       0x20001114     0x4  Data  Gb  pecc1.o [1]
established4Events      0x2000111c     0x4  Data  Gb  pecc1.o [1]
exit                    0x1fffe0df     0x4  Code  Gb  exit.o [3]
fromActivateToTask2     0x200010d4     0x4  Data  Gb  pecc1.o [1]
fromIsrToTASK_3_EVT     0x200010e0     0x4  Data  Gb  pecc1.o [1]
fromIsrToTask1          0x200010d0     0x4  Data  Gb  pecc1.o [1]
fromIsrToTaskA2         0x200010f4     0x4  Data  Gb  pecc1.o [1]
fromIsrToTaskH1         0x20001120     0x4  Data  Gb  pecc1.o [1]
fromIsrToTaskH5         0x20001124     0x4  Data  Gb  pecc1.o [1]
fromIsrToTaskT1         0x20001100     0x4  Data  Gb  pecc1.o [1]
fromIsrToTaskT2         0x20001104     0x4  Data  Gb  pecc1.o [1]
fromIsrToTaskT3         0x20001108     0x4  Data  Gb  pecc1.o [1]
fromIsrToTaskT7         0x2000110c     0x4  Data  Gb  pecc1.o [1]
fromSecondTimerIsrToTaskA1
                        0x200010ec     0x4  Data  Gb  pecc1.o [1]
fromTaskH1ToTaskH4      0x20001130     0x4  Data  Gb  pecc1.o [1]
fromTaskH5ToTaskH8      0x20001134     0x4  Data  Gb  pecc1.o [1]
fromTaskT7ToTaskT4      0x2000112c     0x4  Data  Gb  pecc1.o [1]
fromTeriminateToTask1   0x20001128     0x4  Data  Gb  pecc1.o [1]
inTime                  0x200010b8     0x4  Data  Gb  pecc1.o [1]
interruptLatency        0x200010c8     0x4  Data  Gb  pecc1.o [1]
main                    0x1fffc2c1    0x76  Code  Gb  pecc1.o [1]
pfm1                    0x200010bc     0x4  Data  Gb  pecc1.o [1]
returnToBackgroundTask  0x200010d8     0x4  Data  Gb  pecc1.o [1]
secondTimerIsrTime      0x200010c4     0x4  Data  Gb  pecc1.o [1]
setEventFromTASK_3_EVTToTASK_4_EVT
                        0x200010e4     0x4  Data  Gb  pecc1.o [1]
setEventToTaskA2ViaAlarm
                        0x200010f0     0x4  Data  Gb  pecc1.o [1]
setEventWithinIsr       0x200010dc     0x4  Data  Gb  pecc1.o [1]
systemTimerIsrTime      0x200010c0     0x4  Data  Gb  pecc1.o [1]


[1] = D:\AutosarOS\REPO\S32K_benchmark\Jira\FPU\release__oss32kv4\benchmark\performance\ecc1\sc1\obj
[2] = command line
[3] = dl7M_tln.a
[4] = m7M_tls.a
[5] = rt7M_tl.a

   7 500 bytes of readonly  code memory
     960 bytes of readonly  data memory
  12 472 bytes of readwrite data memory

Errors: none
Warnings: none
